(dp0
S'param_dict'
p1
(dp2
S'norm_type'
p3
S'clip_0to1'
p4
sS'score_clip'
p5
(lp6
F0.0
aF100.0
asS'C'
p7
F4.0
sS'nu'
p8
F0.9
sS'gamma'
p9
F0.04
ssS'model_dict'
p10
(dp11
S'model'
p12
Nsg3
S'linear_rescale'
p13
sg5
g6
sS'feature_names'
p14
(lp15
S'VMAF_feature_adm2_score'
p16
aS'VMAF_feature_motion2_score'
p17
aS'VMAF_feature_vif_scale0_score'
p18
aS'VMAF_feature_vif_scale1_score'
p19
aS'VMAF_feature_vif_scale2_score'
p20
aS'VMAF_feature_vif_scale3_score'
p21
asS'intercepts'
p22
(lp23
F-0.31191973282964003
aF-0.8536192302086182
aF-0.01336836451078975
aF-0.09603743694887917
aF-0.21890356649141152
aF-0.35835059999617175
aF-0.5373563330683786
asS'model_type'
p24
S'LIBSVMNUSVR'
p25
sS'slopes'
p26
(lp27
F0.012388059998472608
aF1.853012066458466
aF0.05141551931924402
aF1.0960374437054892
aF1.2189036205165853
aF1.3583508615652835
aF1.5373567703674345
asS'feature_dict'
p28
(dp29
S'VMAF_feature'
p30
(lp31
S'vif_scale0'
p32
aS'vif_scale1'
p33
aS'vif_scale2'
p34
aS'vif_scale3'
p35
aS'adm2'
p36
aS'motion2'
p37
asss.