(dp0
S'param_dict'
p1
(dp2
S'dis1st_thr'
p3
F40.0
sS'C'
p4
F1.5
sS'norm_type'
p5
S'clip_0to1'
p6
sS'score_clip'
p7
(lp8
F0.0
aF100.0
asS'cache_size'
p9
I200
sS'nu'
p10
F0.5
sS'gamma'
p11
F0.6
ssS'model_dict'
p12
(dp13
g3
F40.0
sg5
S'linear_rescale'
p14
sg7
g8
sS'model'
p15
NsS'feature_names'
p16
(lp17
S'Moment_feature_dis1st_score'
p18
aS'VMAF_feature_adm_score'
p19
aS'VMAF_feature_ansnr_score'
p20
aS'VMAF_feature_motion_score'
p21
aS'VMAF_feature_vif_score'
p22
asS'intercepts'
p23
cnumpy.core.multiarray
_reconstruct
p24
(cnumpy
ndarray
p25
(I0
tp26
S'b'
p27
tp28
Rp29
(I1
(I6
tp30
cnumpy
dtype
p31
(S'f8'
p32
I0
I1
tp33
Rp34
(I3
S'<'
p35
NNNI-1
I-1
I0
tp36
bI00
S"oX\xfb\x86\xb5o\xc8\xbf\xa7r\xeb\x14}\xfd\xcf\xbf\xbfr\x01\x93Z,\xfa\xbf\xe8\xff\x80j\xb6\x16\xe0\xbfE'\xcf\xb8k\xbf\x96\xbf\xc3\x0c\xe2N\x186\xbf\xbf"
p37
tp38
bsS'model_type'
p39
S'LIBSVMNUSVR'
p40
sS'slopes'
p41
g24
(g25
(I0
tp42
g27
tp43
Rp44
(I1
(I6
tp45
g34
I00
S'W\x16xe\x81W\x86?\xf6%}S\xa1\xc7\x80?`\xb9\x80I-\x16\x05@\xe26\xeaK\xbe\x08\x9f?\x0c\x9a\xcd\xe5\xb1\x86\xb1?\xcc \xee\x84a\xf3\xf1?'
p46
tp47
bsS'feature_dict'
p48
(dp49
S'VMAF_feature'
p50
(lp51
S'vif'
p52
aS'adm'
p53
aS'motion'
p54
aS'ansnr'
p55
asS'Moment_feature'
p56
(lp57
S'dis1st'
p58
asss.