(dp0
S'param_dict'
p1
(dp2
S'norm_type'
p3
S'clip_0to1'
p4
sS'score_clip'
p5
(lp6
F0.0
aF100.0
asS'C'
p7
F4.0
sS'nu'
p8
F0.9
sS'gamma'
p9
F0.05
ssS'model_dict'
p10
(dp11
S'model'
p12
Nsg3
S'linear_rescale'
p13
sg5
g6
sS'feature_names'
p14
(lp15
S'VMAF_feature_adm2_score'
p16
aS'VMAF_feature_ansnr_score'
p17
aS'VMAF_feature_motion_score'
p18
aS'VMAF_feature_vif_scale0_score'
p19
aS'VMAF_feature_vif_scale1_score'
p20
aS'VMAF_feature_vif_scale2_score'
p21
aS'VMAF_feature_vif_scale3_score'
p22
asS'intercepts'
p23
cnumpy.core.multiarray
_reconstruct
p24
(cnumpy
ndarray
p25
(I0
tp26
S'b'
p27
tp28
Rp29
(I1
(I8
tp30
cnumpy
dtype
p31
(S'f8'
p32
I0
I1
tp33
Rp34
(I3
S'<'
p35
NNNI-1
I-1
I0
tp36
bI00
S"oX\xfb\x86\xb5o\xc8\xbf.\x88+\xf3W\x8b\xff\xbf\xe8\xff\x80j\xb6\x16\xe0\xbfE'\xcf\xb8k\xbf\x96\xbf\x15@\x95\x18K\t\xb5\xbf\xad\xf6(\xbao\xb6\xd1\xbf`\xf4\x1fd?\x05\xde\xbfOGO\x1f\xef\xdf\xe7\xbf"
p37
tp38
bsS'model_type'
p39
S'LIBSVMNUSVR'
p40
sS'slopes'
p41
g24
(g25
(I0
tp42
g27
tp43
Rp44
(I1
(I8
tp45
g34
I00
S'W\x16xe\x81W\x86?\x17\xc4\x95\xf9\xab\xc5\x07@\xe26\xeaK\xbe\x08\x9f?\x0c\x9a\xcd\xe5\xb1\x86\xb1?\xaaU\xb4\xab\x94P\xf1?\x98O\x86\x04\x9cm\xf4?u\xe2q\x07P\x81\xf7?\xcf\n\n\xeb\xf7\xef\xfb?'
p46
tp47
bsS'feature_dict'
p48
(dp49
S'VMAF_feature'
p50
(lp51
S'vif_scale0'
p52
aS'vif_scale1'
p53
aS'vif_scale2'
p54
aS'vif_scale3'
p55
aS'adm2'
p56
aS'motion'
p57
aS'ansnr'
p58
asss.