(dp0
S'param_dict'
p1
(dp2
S'C'
p3
F1.0
sS'norm_type'
p4
S'clip_0to1'
p5
sS'score_clip'
p6
(lp7
F0.0
aF100.0
asS'cache_size'
p8
I200
sS'nu'
p9
F0.5
sS'gamma'
p10
F0.85
ssS'model_dict'
p11
(dp12
g4
S'linear_rescale'
p13
sg6
g7
sS'feature_names'
p14
(lp15
S'VMAF_feature_adm_score'
p16
aS'VMAF_feature_ansnr_score'
p17
aS'VMAF_feature_motion_score'
p18
aS'VMAF_feature_vif_score'
p19
asS'intercepts'
p20
(lp21
F-0.1909090909090909
aF-1.635828565827225
aF-0.5027725296167747
aF-0.022214587359292954
aF-0.12191917348723096
asS'model_type'
p22
S'LIBSVMNUSVR'
p23
sS'slopes'
p24
(lp25
F0.010909090909090908
aF2.635828565827225
aF0.030306790717580585
aF0.06846153126171134
aF1.121919173487231
asS'model'
p26
Nss.