(dp0
S'param_dict'
p1
(dp2
S'C'
p3
F1.0
sS'norm_type'
p4
S'clip_0to1'
p5
sS'score_clip'
p6
(lp7
F0.0
aF100.0
asS'cache_size'
p8
I200
sS'nu'
p9
F0.5
sS'gamma'
p10
F0.85
ssS'model_dict'
p11
(dp12
S'model'
p13
Nsg4
S'linear_rescale'
p14
sg6
g7
sS'feature_names'
p15
(lp16
S'VMAF_feature_adm_score'
p17
aS'VMAF_feature_ansnr_score'
p18
aS'VMAF_feature_motion_score'
p19
aS'VMAF_feature_vif_score'
p20
asS'intercepts'
p21
cnumpy.core.multiarray
_reconstruct
p22
(cnumpy
ndarray
p23
(I0
tp24
S'b'
p25
tp26
Rp27
(I1
(I5
tp28
cnumpy
dtype
p29
(S'f8'
p30
I0
I1
tp31
Rp32
(I3
S'<'
p33
NNNI-1
I-1
I0
tp34
bI00
S'g1\x9d\xc5t\x16\xc3\xbf\xbfr\x01\x93Z,\xfa\xbf\xe8\xff\x80j\xb6\x16\xe0\xbfI\x15\xcd\xec\x99\x8d\x91\xbf\xc3\x0c\xe2N\x186\xbf\xbf'
p35
tp36
bsS'model_type'
p37
S'LIBSVMNUSVR'
p38
sS'slopes'
p39
g22
(g23
(I0
tp40
g25
tp41
Rp42
(I1
(I5
tp43
g32
I00
S'\xedX\x810\xd2\x8e\x85?`\xb9\x80I-\x16\x05@\xe26\xeaK\xbe\x08\x9f?[6\\\xa3@\x0c\xab?\xcc \xee\x84a\xf3\xf1?'
p44
tp45
bsS'feature_dict'
p46
(dp47
S'VMAF_feature'
p48
S'all'
p49
sss.