(dp0
S'param_dict'
p1
(dp2
S'norm_type'
p3
S'clip_0to1'
p4
sS'score_clip'
p5
(lp6
F0.0
aF100.0
asS'C'
p7
F4.0
sS'nu'
p8
F0.9
sS'gamma'
p9
F0.05
ssS'model_dict'
p10
(dp11
S'model'
p12
Nsg3
S'linear_rescale'
p13
sg5
g6
sS'feature_names'
p14
(lp15
S'VMAF_feature_adm2_score'
p16
aS'VMAF_feature_motion_score'
p17
aS'VMAF_feature_vif_scale0_score'
p18
aS'VMAF_feature_vif_scale1_score'
p19
aS'VMAF_feature_vif_scale2_score'
p20
aS'VMAF_feature_vif_scale3_score'
p21
asS'intercepts'
p22
cnumpy.core.multiarray
_reconstruct
p23
(cnumpy
ndarray
p24
(I0
tp25
S'b'
p26
tp27
Rp28
(I1
(I7
tp29
cnumpy
dtype
p30
(S'f8'
p31
I0
I1
tp32
Rp33
(I3
S'<'
p34
NNNI-1
I-1
I0
tp35
bI00
S'\x9e\x12\xe4)A\x9e\x92\xbf.\x88+\xf3W\x8b\xff\xbfN\x15\xcd\xec\x99\x8d\x91\xbf\x0f@\x95\x18K\t\xb5\xbf\xb0\xf6(\xbao\xb6\xd1\xbf\\\xf4\x1fd?\x05\xde\xbfRGO\x1f\xef\xdf\xe7\xbf'
p36
tp37
bsS'model_type'
p38
S'LIBSVMNUSVR'
p39
sS'slopes'
p40
g23
(g24
(I0
tp41
g26
tp42
Rp43
(I1
(I7
tp44
g33
I00
S')\xe04\x9c\xe7\\\x83?\x17\xc4\x95\xf9\xab\xc5\x07@]6\\\xa3@\x0c\xab?\xa7U\xb4\xab\x94P\xf1?\x9aO\x86\x04\x9cm\xf4?r\xe2q\x07P\x81\xf7?\xd2\n\n\xeb\xf7\xef\xfb?'
p45
tp46
bsS'feature_dict'
p47
(dp48
S'VMAF_feature'
p49
(lp50
S'vif_scale0'
p51
aS'vif_scale1'
p52
aS'vif_scale2'
p53
aS'vif_scale3'
p54
aS'adm2'
p55
aS'motion'
p56
asss.