(dp0
S'param_dict'
p1
(dp2
S'norm_type'
p3
S'clip_0to1'
p4
sS'score_clip'
p5
(lp6
F0.0
aF100.0
asS'C'
p7
F3.1
sS'nu'
p8
F0.9
sS'gamma'
p9
F0.1
ssS'model_dict'
p10
(dp11
S'model'
p12
Nsg3
S'linear_rescale'
p13
sg5
g6
sS'feature_names'
p14
(lp15
S'VMAF_feature_adm_score'
p16
aS'VMAF_feature_ansnr_score'
p17
aS'VMAF_feature_motion_score'
p18
aS'VMAF_feature_vif_score'
p19
asS'intercepts'
p20
cnumpy.core.multiarray
_reconstruct
p21
(cnumpy
ndarray
p22
(I0
tp23
S'b'
p24
tp25
Rp26
(I1
(I5
tp27
cnumpy
dtype
p28
(S'f8'
p29
I0
I1
tp30
Rp31
(I3
S'<'
p32
NNNI-1
I-1
I0
tp33
bI00
S"oX\xfb\x86\xb5o\xc8\xbf\xbfr\x01\x93Z,\xfa\xbf\xe8\xff\x80j\xb6\x16\xe0\xbfE'\xcf\xb8k\xbf\x96\xbf\xc3\x0c\xe2N\x186\xbf\xbf"
p34
tp35
bsS'model_type'
p36
S'LIBSVMNUSVR'
p37
sS'slopes'
p38
g21
(g22
(I0
tp39
g24
tp40
Rp41
(I1
(I5
tp42
g31
I00
S'W\x16xe\x81W\x86?`\xb9\x80I-\x16\x05@\xe26\xeaK\xbe\x08\x9f?\x0c\x9a\xcd\xe5\xb1\x86\xb1?\xcc \xee\x84a\xf3\xf1?'
p43
tp44
bsS'feature_dict'
p45
(dp46
S'VMAF_feature'
p47
(lp48
S'vif'
p49
aS'adm'
p50
aS'motion'
p51
aS'ansnr'
p52
asss.