(dp0
S'param_dict'
p1
(dp2
S'norm_type'
p3
S'clip_0to1'
p4
sS'score_clip'
p5
(lp6
F0.0
aF100.0
asS'C'
p7
F4.0
sS'nu'
p8
F0.9
sS'gamma'
p9
F0.04
ssS'model_dict'
p10
(dp11
S'model'
p12
Nsg3
S'linear_rescale'
p13
sg5
g6
sS'feature_names'
p14
(lp15
S'VMAF_feature_adm2_score'
p16
aS'VMAF_feature_motion2_score'
p17
aS'VMAF_feature_vif_scale0_score'
p18
aS'VMAF_feature_vif_scale1_score'
p19
aS'VMAF_feature_vif_scale2_score'
p20
aS'VMAF_feature_vif_scale3_score'
p21
asS'intercepts'
p22
(lp23
F-0.3092981927591963
aF-1.7993968597186747
aF-0.003017198086831897
aF-0.1728125095425364
aF-0.5294309090081222
aF-0.7577185792093722
aF-1.083428597549764
asS'model_type'
p24
S'LIBSVMNUSVR'
p25
sS'slopes'
p26
(lp27
F0.012020766332648465
aF2.8098077502505414
aF0.06264407466686016
aF1.222763456258933
aF1.5360318811084146
aF1.7620864995501058
aF2.08656468286432
asS'feature_dict'
p28
(dp29
S'VMAF_feature'
p30
(lp31
S'vif_scale0'
p32
aS'vif_scale1'
p33
aS'vif_scale2'
p34
aS'vif_scale3'
p35
aS'adm2'
p36
aS'motion2'
p37
asss.