(dp0
S'brown'
p1
F123.456
sS'arr'
p2
(lp3
I0
aI1
asS'carr'
p4
(lp5
sS'phase_small'
p6
c__builtin__
complex
p7
(F10.1000003814697
F12.1199998855591
tp8
Rp9
sS'keyme'
p10
(dp11
S'mylist'
p12
(lp13
I1
aI2
aS'three'
p14
asS'sub'
p15
S'table'
p16
sI6
I66
ssS'phase'
p17
g7
(F6.7000000000000002
F8.9000000000000004
tp18
Rp19
sS'the'
p20
I1
sS'pi'
p21
F3.14159265358979
sS'more'
p22
(dp23
S'cx_a'
p24
(lp25
g7
(F0.0
F10.0
tp26
Rp27
ag7
(F1.0
F11.0
tp28
Rp29
ag7
(F2.0
F12.0
tp30
Rp31
asS'cx_float'
p32
g7
(F123456792.0
F987654336.0
tp33
Rp34
sS'cx'
p35
g7
(F7.7999999999999998
F9.5
tp36
Rp37
sS'cx_float_array'
p38
(lp39
g7
(F100.0
F0.0
tp40
Rp41
ag7
(F101.0
F100.0
tp42
Rp43
ag7
(F102.0
F200.0
tp44
Rp45
ass.